target datalayout = "e-m:e-p270:32:32-p271:32:32-p272:64:64-i64:64-i128:128-f80:128-n8:16:32:64-S128"
target triple = "x86_64-pc-linux-gnu"

@.str.18 = private unnamed_addr constant [8 x i8] c"__new__\00", align 1

; Function Attrs: nounwind uwtable
define internal i32 @parse_weakref_init_args(ptr noundef %0, ptr noundef %1, ptr noundef %2, ptr noundef %3, ptr noundef %4) #0 {
  %6 = alloca ptr, align 8
  %7 = alloca ptr, align 8
  %8 = alloca ptr, align 8
  %9 = alloca ptr, align 8
  %10 = alloca ptr, align 8
  store ptr %0, ptr %6, align 8, !tbaa !60
  store ptr %1, ptr %7, align 8, !tbaa !4
  store ptr %2, ptr %8, align 8, !tbaa !4
  store ptr %3, ptr %9, align 8, !tbaa !34
  store ptr %4, ptr %10, align 8, !tbaa !34
  %11 = load ptr, ptr %7, align 8, !tbaa !4
  %12 = load ptr, ptr %6, align 8, !tbaa !60
  %13 = load ptr, ptr %9, align 8, !tbaa !34
  %14 = load ptr, ptr %10, align 8, !tbaa !34
  %15 = call i32 (ptr, ptr, i64, i64, ...) @PyArg_UnpackTuple(ptr noundef %11, ptr noundef %12, i64 noundef 1, i64 noundef 2, ptr noundef %13, ptr noundef %14)
  ret i32 %15
}

; Function Attrs: nounwind uwtable
define internal ptr @weakref___new__(ptr noundef %0, ptr noundef %1, ptr noundef %2) #0 {
  %4 = alloca ptr, align 8
  %5 = alloca ptr, align 8
  %6 = alloca ptr, align 8
  %7 = alloca ptr, align 8
  %8 = alloca ptr, align 8
  %9 = alloca ptr, align 8
  %10 = alloca i32, align 4
  store ptr %0, ptr %5, align 8, !tbaa !19
  store ptr %1, ptr %6, align 8, !tbaa !4
  store ptr %2, ptr %7, align 8, !tbaa !4
  call void @llvm.lifetime.start.p0(i64 8, ptr %8) #6
  call void @llvm.lifetime.start.p0(i64 8, ptr %9) #6
  store ptr null, ptr %9, align 8, !tbaa !4
  %11 = load ptr, ptr %6, align 8, !tbaa !4
  %12 = load ptr, ptr %7, align 8, !tbaa !4
  %13 = call i32 @parse_weakref_init_args(ptr noundef @.str.18, ptr noundef %11, ptr noundef %12, ptr noundef %8, ptr noundef %9)
  %14 = icmp ne i32 %13, 0
  br i1 %14, label %15, label %20

15:                                               ; preds = %3
  %16 = load ptr, ptr %5, align 8, !tbaa !19
  %17 = load ptr, ptr %8, align 8, !tbaa !4
  %18 = load ptr, ptr %9, align 8, !tbaa !4
  %19 = call ptr @get_or_create_weakref(ptr noundef %16, ptr noundef %17, ptr noundef %18)
  store ptr %19, ptr %4, align 8
  store i32 1, ptr %10, align 4
  br label %21

20:                                               ; preds = %3
  store ptr null, ptr %4, align 8
  store i32 1, ptr %10, align 4
  br label %21

21:                                               ; preds = %20, %15
  call void @llvm.lifetime.end.p0(i64 8, ptr %9) #6
  call void @llvm.lifetime.end.p0(i64 8, ptr %8) #6
  %22 = load ptr, ptr %4, align 8
  ret ptr %22
}