; Function Attrs: nounwind uwtable
define internal ptr @weakref___new__(ptr noundef %0, ptr noundef %1, ptr readnone captures(none) %2) #0 {
  %4 = alloca ptr, align 8
  %5 = alloca ptr, align 8
  call void @llvm.lifetime.start.p0(i64 8, ptr nonnull %4) #6
  call void @llvm.lifetime.start.p0(i64 8, ptr nonnull %5) #6
  store ptr null, ptr %5, align 8, !tbaa !45
  %6 = call i32 (ptr, ptr, i64, i64, ...) @PyArg_UnpackTuple(ptr noundef %1, ptr noundef nonnull @.str.18, i64 noundef 1, i64 noundef 2, ptr noundef nonnull %4, ptr noundef nonnull %5) #6
  %.not = icmp eq i32 %6, 0
  br i1 %.not, label %11, label %7

7:                                                ; preds = %3
  %8 = load ptr, ptr %4, align 8, !tbaa !45
  %9 = load ptr, ptr %5, align 8, !tbaa !45
  %10 = call fastcc ptr @get_or_create_weakref(ptr noundef %0, ptr noundef %8, ptr noundef %9)
  br label %11

11:                                               ; preds = %3, %7
  %.0 = phi ptr [ %10, %7 ], [ null, %3 ]
  call void @llvm.lifetime.end.p0(i64 8, ptr nonnull %5) #6
  call void @llvm.lifetime.end.p0(i64 8, ptr nonnull %4) #6
  ret ptr %.0
}